; ModuleID = '11/519.c'
source_filename = "11/519.c"
target datalayout = "e-m:e-p270:32:32-p271:32:32-p272:64:64-i64:64-f80:128-n8:16:32:64-S128"
target triple = "x86_64-pc-linux-gnu"

@__const.main.A = private unnamed_addr constant [12 x i32] [i32 31, i32 28, i32 31, i32 30, i32 31, i32 30, i32 31, i32 31, i32 30, i32 31, i32 30, i32 31], align 16
@.str = private unnamed_addr constant [7 x i8] c"%d%d%d\00", align 1
@.str.1 = private unnamed_addr constant [3 x i8] c"%d\00", align 1

; Function Attrs: noinline nounwind uwtable
define dso_local i32 @main() #0 {
  %1 = alloca i32, align 4
  %2 = alloca [12 x i32], align 16
  %3 = alloca i32, align 4
  %4 = alloca i32, align 4
  %5 = alloca i32, align 4
  %6 = alloca i32, align 4
  %7 = alloca i32, align 4
  store i32 0, i32* %1, align 4
  %8 = bitcast [12 x i32]* %2 to i8*
  call void @llvm.memcpy.p0i8.p0i8.i64(i8* align 16 %8, i8* align 16 bitcast ([12 x i32]* @__const.main.A to i8*), i64 48, i1 false)
  %9 = call i32 (i8*, ...) @__isoc99_scanf(i8* getelementptr inbounds ([7 x i8], [7 x i8]* @.str, i64 0, i64 0), i32* %3, i32* %4, i32* %5)
  store i32 0, i32* %7, align 4
  store i32 0, i32* %6, align 4
  br label %10

10:                                               ; preds = %22, %0
  %11 = load i32, i32* %6, align 4
  %12 = load i32, i32* %4, align 4
  %13 = sub nsw i32 %12, 1
  %14 = icmp slt i32 %11, %13
  br i1 %14, label %15, label %25

15:                                               ; preds = %10
  %16 = load i32, i32* %7, align 4
  %17 = load i32, i32* %6, align 4
  %18 = sext i32 %17 to i64
  %19 = getelementptr inbounds [12 x i32], [12 x i32]* %2, i64 0, i64 %18
  %20 = load i32, i32* %19, align 4
  %21 = add nsw i32 %16, %20
  store i32 %21, i32* %7, align 4
  br label %22

22:                                               ; preds = %15
  %23 = load i32, i32* %6, align 4
  %24 = add nsw i32 %23, 1
  store i32 %24, i32* %6, align 4
  br label %10

25:                                               ; preds = %10
  %26 = load i32, i32* %7, align 4
  %27 = load i32, i32* %5, align 4
  %28 = add nsw i32 %26, %27
  store i32 %28, i32* %7, align 4
  %29 = load i32, i32* %3, align 4
  %30 = srem i32 %29, 4
  %31 = icmp eq i32 %30, 0
  br i1 %31, label %32, label %36

32:                                               ; preds = %25
  %33 = load i32, i32* %3, align 4
  %34 = srem i32 %33, 100
  %35 = icmp ne i32 %34, 0
  br i1 %35, label %40, label %36

36:                                               ; preds = %32, %25
  %37 = load i32, i32* %3, align 4
  %38 = srem i32 %37, 400
  %39 = icmp eq i32 %38, 0
  br i1 %39, label %40, label %55

40:                                               ; preds = %36, %32
  %41 = load i32, i32* %4, align 4
  %42 = icmp eq i32 %41, 1
  br i1 %42, label %46, label %43

43:                                               ; preds = %40
  %44 = load i32, i32* %4, align 4
  %45 = icmp eq i32 %44, 2
  br i1 %45, label %46, label %49

46:                                               ; preds = %43, %40
  %47 = load i32, i32* %7, align 4
  %48 = call i32 (i8*, ...) @printf(i8* getelementptr inbounds ([3 x i8], [3 x i8]* @.str.1, i64 0, i64 0), i32 %47)
  br label %54

49:                                               ; preds = %43
  %50 = load i32, i32* %7, align 4
  %51 = add nsw i32 %50, 1
  store i32 %51, i32* %7, align 4
  %52 = load i32, i32* %7, align 4
  %53 = call i32 (i8*, ...) @printf(i8* getelementptr inbounds ([3 x i8], [3 x i8]* @.str.1, i64 0, i64 0), i32 %52)
  br label %54

54:                                               ; preds = %49, %46
  br label %58

55:                                               ; preds = %36
  %56 = load i32, i32* %7, align 4
  %57 = call i32 (i8*, ...) @printf(i8* getelementptr inbounds ([3 x i8], [3 x i8]* @.str.1, i64 0, i64 0), i32 %56)
  br label %58

58:                                               ; preds = %55, %54
  ret i32 0
}

; Function Attrs: argmemonly nounwind willreturn
declare void @llvm.memcpy.p0i8.p0i8.i64(i8* noalias nocapture writeonly, i8* noalias nocapture readonly, i64, i1 immarg) #1

declare dso_local i32 @__isoc99_scanf(i8*, ...) #2

declare dso_local i32 @printf(i8*, ...) #2


!llvm.module.flags = !{!0}
!llvm.ident = !{!1}

!0 = !{i32 1, !"wchar_size", i32 4}
!1 = !{!"clang version 10.0.0-4ubuntu1 "}
